; ModuleID = 'source-C-CXX/12/696.c'
source_filename = "source-C-CXX/12/696.c"
target datalayout = "e-m:e-p270:32:32-p271:32:32-p272:64:64-i64:64-f80:128-n8:16:32:64-S128"
target triple = "x86_64-pc-linux-gnu"

@.str = private unnamed_addr constant [3 x i8] c"%d\00", align 1

; Function Attrs: nofree nounwind sspstrong uwtable
define dso_local i32 @main() local_unnamed_addr #0 {
  %1 = alloca [20000 x i32], align 16
  %2 = alloca i32, align 4
  %3 = bitcast [20000 x i32]* %1 to i8*
  call void @llvm.lifetime.start.p0i8(i64 80000, i8* nonnull %3) #4
  %4 = bitcast i32* %2 to i8*
  call void @llvm.lifetime.start.p0i8(i64 4, i8* nonnull %4) #4
  %5 = call i32 (i8*, ...) @__isoc99_scanf(i8* getelementptr inbounds ([3 x i8], [3 x i8]* @.str, i64 0, i64 0), i32* nonnull %2)
  %6 = load i32, i32* %2, align 4, !tbaa !5
  %7 = icmp sgt i32 %6, 0
  br i1 %7, label %8, label %19

8:                                                ; preds = %0, %8
  %9 = phi i64 [ %12, %8 ], [ 0, %0 ]
  %10 = getelementptr inbounds [20000 x i32], [20000 x i32]* %1, i64 0, i64 %9
  %11 = call i32 (i8*, ...) @__isoc99_scanf(i8* getelementptr inbounds ([3 x i8], [3 x i8]* @.str, i64 0, i64 0), i32* nonnull %10)
  %12 = add nuw nsw i64 %9, 1
  %13 = load i32, i32* %2, align 4, !tbaa !5
  %14 = sext i32 %13 to i64
  %15 = icmp slt i64 %12, %14
  br i1 %15, label %8, label %16, !llvm.loop !9

16:                                               ; preds = %8
  %17 = getelementptr inbounds [20000 x i32], [20000 x i32]* %1, i64 0, i64 0
  %18 = load i32, i32* %17, align 16, !tbaa !5
  br label %19

19:                                               ; preds = %16, %0
  %20 = phi i32 [ %18, %16 ], [ undef, %0 ]
  %21 = call i32 (i8*, ...) @printf(i8* nonnull dereferenceable(1) getelementptr inbounds ([3 x i8], [3 x i8]* @.str, i64 0, i64 0), i32 %20)
  %22 = load i32, i32* %2, align 4, !tbaa !5
  %23 = icmp sgt i32 %22, 0
  br i1 %23, label %24, label %58

24:                                               ; preds = %19, %53
  %25 = phi i32 [ %54, %53 ], [ %22, %19 ]
  %26 = phi i64 [ %55, %53 ], [ 0, %19 ]
  %27 = getelementptr inbounds [20000 x i32], [20000 x i32]* %1, i64 0, i64 %26
  %28 = icmp sgt i32 %25, 0
  br i1 %28, label %29, label %53

29:                                               ; preds = %24
  %30 = add nuw i64 %26, 4294967295
  %31 = and i64 %30, 4294967295
  br label %32

32:                                               ; preds = %29, %47
  %33 = phi i32 [ %25, %29 ], [ %48, %47 ]
  %34 = phi i32 [ %25, %29 ], [ %49, %47 ]
  %35 = phi i64 [ 0, %29 ], [ %50, %47 ]
  %36 = load i32, i32* %27, align 4, !tbaa !5
  %37 = getelementptr inbounds [20000 x i32], [20000 x i32]* %1, i64 0, i64 %35
  %38 = load i32, i32* %37, align 4, !tbaa !5
  %39 = icmp eq i32 %36, %38
  br i1 %39, label %53, label %40

40:                                               ; preds = %32
  %41 = icmp eq i64 %35, %31
  br i1 %41, label %42, label %47

42:                                               ; preds = %40
  %43 = call i32 @putchar(i32 32)
  %44 = load i32, i32* %27, align 4, !tbaa !5
  %45 = call i32 (i8*, ...) @printf(i8* nonnull dereferenceable(1) getelementptr inbounds ([3 x i8], [3 x i8]* @.str, i64 0, i64 0), i32 %44)
  %46 = load i32, i32* %2, align 4, !tbaa !5
  br label %47

47:                                               ; preds = %40, %42
  %48 = phi i32 [ %33, %40 ], [ %46, %42 ]
  %49 = phi i32 [ %34, %40 ], [ %46, %42 ]
  %50 = add nuw nsw i64 %35, 1
  %51 = sext i32 %49 to i64
  %52 = icmp slt i64 %50, %51
  br i1 %52, label %32, label %53, !llvm.loop !11

53:                                               ; preds = %32, %47, %24
  %54 = phi i32 [ %25, %24 ], [ %33, %32 ], [ %48, %47 ]
  %55 = add nuw nsw i64 %26, 1
  %56 = sext i32 %54 to i64
  %57 = icmp slt i64 %55, %56
  br i1 %57, label %24, label %58, !llvm.loop !12

58:                                               ; preds = %53, %19
  call void @llvm.lifetime.end.p0i8(i64 4, i8* nonnull %4) #4
  call void @llvm.lifetime.end.p0i8(i64 80000, i8* nonnull %3) #4
  ret i32 0
}

; Function Attrs: argmemonly mustprogress nofree nosync nounwind willreturn
declare void @llvm.lifetime.start.p0i8(i64 immarg, i8* nocapture) #1

; Function Attrs: nofree nounwind
declare noundef i32 @__isoc99_scanf(i8* nocapture noundef readonly, ...) local_unnamed_addr #2

; Function Attrs: nofree nounwind
declare noundef i32 @printf(i8* nocapture noundef readonly, ...) local_unnamed_addr #2

; Function Attrs: argmemonly mustprogress nofree nosync nounwind willreturn
declare void @llvm.lifetime.end.p0i8(i64 immarg, i8* nocapture) #1

; Function Attrs: nofree nounwind
declare noundef i32 @putchar(i32 noundef) local_unnamed_addr #3


!llvm.module.flags = !{!0, !1, !2, !3}
!llvm.ident = !{!4}

!0 = !{i32 1, !"wchar_size", i32 4}
!1 = !{i32 7, !"PIC Level", i32 2}
!2 = !{i32 7, !"PIE Level", i32 2}
!3 = !{i32 7, !"uwtable", i32 1}
!4 = !{!"clang version 13.0.0"}
!5 = !{!6, !6, i64 0}
!6 = !{!"int", !7, i64 0}
!7 = !{!"omnipotent char", !8, i64 0}
!8 = !{!"Simple C/C++ TBAA"}
!9 = distinct !{!9, !10}
!10 = !{!"llvm.loop.mustprogress"}
!11 = distinct !{!11, !10}
!12 = distinct !{!12, !10, !13}
!13 = !{!"llvm.loop.unswitch.partial.disable"}
